; Function Attrs: mustprogress uwtable
define dso_local noundef nonnull align 8 dereferenceable(744) ptr @_ZN17btTypedConstraint12getFixedBodyEv() local_unnamed_addr #1 align 2 personality ptr @__gxx_personality_v0 {
entry:
  %ref.tmp = alloca %class.btVector3, align 4
  %ref.tmp5 = alloca %class.btVector3, align 4
  %0 = load atomic i8, ptr @_ZGVZN17btTypedConstraint12getFixedBodyEvE7s_fixed acquire, align 8
  %guard.uninitialized = icmp eq i8 %0, 0
  br i1 %guard.uninitialized, label %init.check, label %init.end, !prof !5

init.check:                                       ; preds = %entry
  %1 = tail call i32 @__cxa_guard_acquire(ptr nonnull @_ZGVZN17btTypedConstraint12getFixedBodyEvE7s_fixed) #14
  %tobool.not = icmp eq i32 %1, 0
  br i1 %tobool.not, label %init.end, label %init

init:                                             ; preds = %init.check
  call void @llvm.memset.p0.i64(ptr noundef nonnull align 4 dereferenceable(16) %ref.tmp, i8 0, i64 16, i1 false)
  invoke void @_ZN11btRigidBodyC1EfP13btMotionStateP16btCollisionShapeRK9btVector3(ptr noundef nonnull align 8 dereferenceable(744) @_ZZN17btTypedConstraint12getFixedBodyEvE7s_fixed, float noundef 0.000000e+00, ptr noundef null, ptr noundef null, ptr noundef nonnull align 4 dereferenceable(16) %ref.tmp)
          to label %invoke.cont4 unwind label %lpad

invoke.cont4:                                     ; preds = %init
  %2 = call i32 @__cxa_atexit(ptr nonnull @_ZN11btRigidBodyD2Ev, ptr nonnull @_ZZN17btTypedConstraint12getFixedBodyEvE7s_fixed, ptr nonnull @__dso_handle) #14
  call void @__cxa_guard_release(ptr nonnull @_ZGVZN17btTypedConstraint12getFixedBodyEvE7s_fixed) #14
  br label %init.end

init.end:                                         ; preds = %invoke.cont4, %init.check, %entry
  call void @llvm.memset.p0.i64(ptr noundef nonnull align 4 dereferenceable(16) %ref.tmp5, i8 0, i64 16, i1 false)
  call void @_ZN11btRigidBody12setMassPropsEfRK9btVector3(ptr noundef nonnull align 8 dereferenceable(744) @_ZZN17btTypedConstraint12getFixedBodyEvE7s_fixed, float noundef 0.000000e+00, ptr noundef nonnull align 4 dereferenceable(16) %ref.tmp5)
  ret ptr @_ZZN17btTypedConstraint12getFixedBodyEvE7s_fixed

lpad:                                             ; preds = %init
  %3 = landingpad { ptr, i32 }
          cleanup
  call void @__cxa_guard_abort(ptr nonnull @_ZGVZN17btTypedConstraint12getFixedBodyEvE7s_fixed) #14
  resume { ptr, i32 } %3
}